target datalayout = "e-m:e-p270:32:32-p271:32:32-p272:64:64-i64:64-i128:128-f80:128-n8:16:32:64-S128"
target triple = "x86_64-pc-linux-gnu"

%"struct.std::_Rb_tree_header" = type { %"struct.std::_Rb_tree_node_base", i64 }
%"struct.std::_Rb_tree_node_base" = type { i32, ptr, ptr, ptr }
%"class.pkpy::Compiler" = type { %"struct.pkpy::Lexer", %"class.pkpy::stack_no_copy.3", ptr, i8, i32, %"class.std::vector" }
%"struct.pkpy::Lexer" = type <{ ptr, %"class.std::shared_ptr", ptr, ptr, i32, [4 x i8], %"class.std::vector", %"class.pkpy::stack_no_copy", i32, [4 x i8] }>
%"class.std::shared_ptr" = type { %"class.std::__shared_ptr" }
%"class.std::__shared_ptr" = type { ptr, %"class.std::__shared_count" }
%"class.std::__shared_count" = type { ptr }
%"class.pkpy::stack_no_copy" = type { %"class.pkpy::stack" }
%"class.pkpy::stack" = type { %"class.pkpy::small_vector_2" }
%"class.pkpy::small_vector_2" = type { %"class.pkpy::small_vector" }
%"class.pkpy::small_vector" = type { [32 x i8], ptr, ptr, ptr }
%"class.pkpy::stack_no_copy.3" = type { %"class.pkpy::stack.4" }
%"class.pkpy::stack.4" = type { %"class.std::vector.5" }
%"class.std::vector.5" = type { %"struct.std::_Vector_base.6" }
%"struct.std::_Vector_base.6" = type { %"struct.std::_Vector_base<pkpy::CodeEmitContext, std::allocator<pkpy::CodeEmitContext>>::_Vector_impl" }
%"struct.std::_Vector_base<pkpy::CodeEmitContext, std::allocator<pkpy::CodeEmitContext>>::_Vector_impl" = type { %"struct.std::_Vector_base<pkpy::CodeEmitContext, std::allocator<pkpy::CodeEmitContext>>::_Vector_impl_data" }
%"struct.std::_Vector_base<pkpy::CodeEmitContext, std::allocator<pkpy::CodeEmitContext>>::_Vector_impl_data" = type { ptr, ptr, ptr }
%"class.std::vector" = type { %"struct.std::_Vector_base" }
%"struct.std::_Vector_base" = type { %"struct.std::_Vector_base<pkpy::Token, std::allocator<pkpy::Token>>::_Vector_impl" }
%"struct.std::_Vector_base<pkpy::Token, std::allocator<pkpy::Token>>::_Vector_impl" = type { %"struct.std::_Vector_base<pkpy::Token, std::allocator<pkpy::Token>>::_Vector_impl_data" }
%"struct.std::_Vector_base<pkpy::Token, std::allocator<pkpy::Token>>::_Vector_impl_data" = type { ptr, ptr, ptr }
%"class.std::shared_ptr.10" = type { %"class.std::__shared_ptr.11" }
%"class.std::__shared_ptr.11" = type { ptr, %"class.std::__shared_count" }
%"struct.pkpy::CodeEmitContext" = type { ptr, %"class.std::shared_ptr.54", %"class.std::shared_ptr.10", %"class.pkpy::stack_no_copy.57", i32, %"class.std::set", i32, i8, i32, %"class.std::map.71", %"class.std::map.79" }
%"class.std::shared_ptr.54" = type { %"class.std::__shared_ptr.55" }
%"class.std::__shared_ptr.55" = type { ptr, %"class.std::__shared_count" }
%"class.pkpy::stack_no_copy.57" = type { %"class.pkpy::stack.58" }
%"class.pkpy::stack.58" = type { %"class.std::vector.59" }
%"class.std::vector.59" = type { %"struct.std::_Vector_base.60" }
%"struct.std::_Vector_base.60" = type { %"struct.std::_Vector_base<pkpy::unique_ptr_128<pkpy::Expr>, std::allocator<pkpy::unique_ptr_128<pkpy::Expr>>>::_Vector_impl" }
%"struct.std::_Vector_base<pkpy::unique_ptr_128<pkpy::Expr>, std::allocator<pkpy::unique_ptr_128<pkpy::Expr>>>::_Vector_impl" = type { %"struct.std::_Vector_base<pkpy::unique_ptr_128<pkpy::Expr>, std::allocator<pkpy::unique_ptr_128<pkpy::Expr>>>::_Vector_impl_data" }
%"struct.std::_Vector_base<pkpy::unique_ptr_128<pkpy::Expr>, std::allocator<pkpy::unique_ptr_128<pkpy::Expr>>>::_Vector_impl_data" = type { ptr, ptr, ptr }
%"class.std::set" = type { %"class.std::_Rb_tree.64" }
%"class.std::_Rb_tree.64" = type { %"struct.std::_Rb_tree<pkpy::Str, pkpy::Str, std::_Identity<pkpy::Str>, std::less<pkpy::Str>>::_Rb_tree_impl" }
%"struct.std::_Rb_tree<pkpy::Str, pkpy::Str, std::_Identity<pkpy::Str>, std::less<pkpy::Str>>::_Rb_tree_impl" = type { %"struct.std::_Rb_tree_key_compare.68", %"struct.std::_Rb_tree_header" }
%"struct.std::_Rb_tree_key_compare.68" = type { %"struct.std::less.69" }
%"struct.std::less.69" = type { i8 }
%"class.std::map.71" = type { %"class.std::_Rb_tree.72" }
%"class.std::_Rb_tree.72" = type { %"struct.std::_Rb_tree<void *, std::pair<void *const, int>, std::_Select1st<std::pair<void *const, int>>, std::less<void *>>::_Rb_tree_impl" }
%"struct.std::_Rb_tree<void *, std::pair<void *const, int>, std::_Select1st<std::pair<void *const, int>>, std::less<void *>>::_Rb_tree_impl" = type { %"struct.std::_Rb_tree_key_compare.76", %"struct.std::_Rb_tree_header" }
%"struct.std::_Rb_tree_key_compare.76" = type { %"struct.std::less.77" }
%"struct.std::less.77" = type { i8 }
%"class.std::map.79" = type { %"class.std::_Rb_tree.80" }
%"class.std::_Rb_tree.80" = type { %"struct.std::_Rb_tree<std::__cxx11::basic_string<char>, std::pair<const std::__cxx11::basic_string<char>, int>, std::_Select1st<std::pair<const std::__cxx11::basic_string<char>, int>>, std::less<void>>::_Rb_tree_impl" }
%"struct.std::_Rb_tree<std::__cxx11::basic_string<char>, std::pair<const std::__cxx11::basic_string<char>, int>, std::_Select1st<std::pair<const std::__cxx11::basic_string<char>, int>>, std::less<void>>::_Rb_tree_impl" = type { %"struct.std::_Rb_tree_key_compare.84", %"struct.std::_Rb_tree_header" }
%"struct.std::_Rb_tree_key_compare.84" = type { %"struct.std::less.85" }
%"struct.std::less.85" = type { i8 }
%"class.pkpy::unique_ptr_128" = type { ptr }
%"class.__gnu_cxx::__normal_iterator.134" = type { ptr }

; Function Attrs: mustprogress nounwind uwtable
define linkonce_odr void @_ZN4pkpy14unique_ptr_128INS_4ExprEED2Ev(ptr noundef nonnull align 8 dereferenceable(8) %0) unnamed_addr #5 comdat align 2 {
  %2 = alloca ptr, align 8
  store ptr %0, ptr %2, align 8
  %3 = load ptr, ptr %2, align 8
  %4 = getelementptr inbounds %"class.pkpy::unique_ptr_128", ptr %3, i32 0, i32 0
  %5 = load ptr, ptr %4, align 8
  %6 = icmp ne ptr %5, null
  br i1 %6, label %7, label %16

7:                                                ; preds = %1
  %8 = getelementptr inbounds %"class.pkpy::unique_ptr_128", ptr %3, i32 0, i32 0
  %9 = load ptr, ptr %8, align 8
  %10 = load ptr, ptr %9, align 8
  %11 = getelementptr inbounds ptr, ptr %10, i64 0
  %12 = load ptr, ptr %11, align 8
  call void %12(ptr noundef nonnull align 8 dereferenceable(12) %9) #3
  %13 = getelementptr inbounds %"class.pkpy::unique_ptr_128", ptr %3, i32 0, i32 0
  %14 = load ptr, ptr %13, align 8
  call void @_ZN4pkpy15pool128_deallocEPv(ptr noundef %14) #3
  %15 = getelementptr inbounds %"class.pkpy::unique_ptr_128", ptr %3, i32 0, i32 0
  store ptr null, ptr %15, align 8
  br label %16

16:                                               ; preds = %7, %1
  ret void
}

; Function Attrs: mustprogress nounwind uwtable
define linkonce_odr void @_ZN9__gnu_cxx17__normal_iteratorIPN4pkpy15CodeEmitContextESt6vectorIS2_SaIS2_EEEC2ERKS3_(ptr noundef nonnull align 8 dereferenceable(8) %0, ptr noundef nonnull align 8 dereferenceable(8) %1) unnamed_addr #5 comdat align 2 {
  %3 = alloca ptr, align 8
  %4 = alloca ptr, align 8
  store ptr %0, ptr %3, align 8
  store ptr %1, ptr %4, align 8
  %5 = load ptr, ptr %3, align 8
  %6 = getelementptr inbounds %"class.__gnu_cxx::__normal_iterator.134", ptr %5, i32 0, i32 0
  %7 = load ptr, ptr %4, align 8
  %8 = load ptr, ptr %7, align 8
  store ptr %8, ptr %6, align 8
  ret void
}

; Function Attrs: mustprogress nounwind uwtable
define linkonce_odr void @_ZNSt15__new_allocatorIN4pkpy14unique_ptr_128INS0_4ExprEEEE7destroyIS3_EEvPT_(ptr noundef nonnull align 1 dereferenceable(1) %0, ptr noundef %1) #5 comdat align 2 {
  %3 = alloca ptr, align 8
  %4 = alloca ptr, align 8
  store ptr %0, ptr %3, align 8
  store ptr %1, ptr %4, align 8
  %5 = load ptr, ptr %4, align 8
  call void @_ZN4pkpy14unique_ptr_128INS_4ExprEED2Ev(ptr noundef nonnull align 8 dereferenceable(8) %5) #3
  ret void
}

; Function Attrs: mustprogress nounwind uwtable
define linkonce_odr noundef nonnull align 8 dereferenceable(232) ptr @_ZNK9__gnu_cxx17__normal_iteratorIPN4pkpy15CodeEmitContextESt6vectorIS2_SaIS2_EEEdeEv(ptr noundef nonnull align 8 dereferenceable(8) %0) #5 comdat align 2 {
  %2 = alloca ptr, align 8
  store ptr %0, ptr %2, align 8
  %3 = load ptr, ptr %2, align 8
  %4 = getelementptr inbounds %"class.__gnu_cxx::__normal_iterator.134", ptr %3, i32 0, i32 0
  %5 = load ptr, ptr %4, align 8
  ret ptr %5
}

; Function Attrs: mustprogress nounwind uwtable
define linkonce_odr ptr @_ZNK9__gnu_cxx17__normal_iteratorIPN4pkpy15CodeEmitContextESt6vectorIS2_SaIS2_EEEmiEl(ptr noundef nonnull align 8 dereferenceable(8) %0, i64 noundef %1) #5 comdat align 2 {
  %3 = alloca %"class.__gnu_cxx::__normal_iterator.134", align 8
  %4 = alloca ptr, align 8
  %5 = alloca i64, align 8
  %6 = alloca ptr, align 8
  store ptr %0, ptr %4, align 8
  store i64 %1, ptr %5, align 8
  %7 = load ptr, ptr %4, align 8
  %8 = getelementptr inbounds %"class.__gnu_cxx::__normal_iterator.134", ptr %7, i32 0, i32 0
  %9 = load ptr, ptr %8, align 8
  %10 = load i64, ptr %5, align 8
  %11 = sub i64 0, %10
  %12 = getelementptr inbounds %"struct.pkpy::CodeEmitContext", ptr %9, i64 %11
  store ptr %12, ptr %6, align 8
  call void @_ZN9__gnu_cxx17__normal_iteratorIPN4pkpy15CodeEmitContextESt6vectorIS2_SaIS2_EEEC2ERKS3_(ptr noundef nonnull align 8 dereferenceable(8) %3, ptr noundef nonnull align 8 dereferenceable(8) %6) #3
  %13 = getelementptr inbounds %"class.__gnu_cxx::__normal_iterator.134", ptr %3, i32 0, i32 0
  %14 = load ptr, ptr %13, align 8
  ret ptr %14
}

; Function Attrs: mustprogress nounwind uwtable
define linkonce_odr ptr @_ZNSt6vectorIN4pkpy15CodeEmitContextESaIS1_EE3endEv(ptr noundef nonnull align 8 dereferenceable(24) %0) #5 comdat align 2 {
  %2 = alloca %"class.__gnu_cxx::__normal_iterator.134", align 8
  %3 = alloca ptr, align 8
  store ptr %0, ptr %3, align 8
  %4 = load ptr, ptr %3, align 8
  %5 = getelementptr inbounds %"struct.std::_Vector_base.6", ptr %4, i32 0, i32 0
  %6 = getelementptr inbounds %"struct.std::_Vector_base<pkpy::CodeEmitContext, std::allocator<pkpy::CodeEmitContext>>::_Vector_impl_data", ptr %5, i32 0, i32 1
  call void @_ZN9__gnu_cxx17__normal_iteratorIPN4pkpy15CodeEmitContextESt6vectorIS2_SaIS2_EEEC2ERKS3_(ptr noundef nonnull align 8 dereferenceable(8) %2, ptr noundef nonnull align 8 dereferenceable(8) %6) #3
  %7 = getelementptr inbounds %"class.__gnu_cxx::__normal_iterator.134", ptr %2, i32 0, i32 0
  %8 = load ptr, ptr %7, align 8
  ret ptr %8
}

; Function Attrs: mustprogress nounwind uwtable
define linkonce_odr void @_ZNSt16allocator_traitsISaIN4pkpy14unique_ptr_128INS0_4ExprEEEEE7destroyIS3_EEvRS4_PT_(ptr noundef nonnull align 1 dereferenceable(1) %0, ptr noundef %1) #5 comdat align 2 {
  %3 = alloca ptr, align 8
  %4 = alloca ptr, align 8
  store ptr %0, ptr %3, align 8
  store ptr %1, ptr %4, align 8
  %5 = load ptr, ptr %3, align 8
  %6 = load ptr, ptr %4, align 8
  call void @_ZNSt15__new_allocatorIN4pkpy14unique_ptr_128INS0_4ExprEEEE7destroyIS3_EEvPT_(ptr noundef nonnull align 1 dereferenceable(1) %5, ptr noundef %6) #3
  ret void
}

; Function Attrs: mustprogress nounwind uwtable
define linkonce_odr noundef nonnull align 8 dereferenceable(232) ptr @_ZNSt6vectorIN4pkpy15CodeEmitContextESaIS1_EE4backEv(ptr noundef nonnull align 8 dereferenceable(24) %0) #5 comdat align 2 {
  %2 = alloca ptr, align 8
  %3 = alloca %"class.__gnu_cxx::__normal_iterator.134", align 8
  %4 = alloca %"class.__gnu_cxx::__normal_iterator.134", align 8
  store ptr %0, ptr %2, align 8
  %5 = load ptr, ptr %2, align 8
  %6 = call ptr @_ZNSt6vectorIN4pkpy15CodeEmitContextESaIS1_EE3endEv(ptr noundef nonnull align 8 dereferenceable(24) %5) #3
  %7 = getelementptr inbounds %"class.__gnu_cxx::__normal_iterator.134", ptr %4, i32 0, i32 0
  store ptr %6, ptr %7, align 8
  %8 = call ptr @_ZNK9__gnu_cxx17__normal_iteratorIPN4pkpy15CodeEmitContextESt6vectorIS2_SaIS2_EEEmiEl(ptr noundef nonnull align 8 dereferenceable(8) %4, i64 noundef 1) #3
  %9 = getelementptr inbounds %"class.__gnu_cxx::__normal_iterator.134", ptr %3, i32 0, i32 0
  store ptr %8, ptr %9, align 8
  %10 = call noundef nonnull align 8 dereferenceable(232) ptr @_ZNK9__gnu_cxx17__normal_iteratorIPN4pkpy15CodeEmitContextESt6vectorIS2_SaIS2_EEEdeEv(ptr noundef nonnull align 8 dereferenceable(8) %3) #3
  ret ptr %10
}

; Function Attrs: mustprogress nounwind uwtable
define linkonce_odr void @_ZNSt6vectorIN4pkpy14unique_ptr_128INS0_4ExprEEESaIS3_EE8pop_backEv(ptr noundef nonnull align 8 dereferenceable(24) %0) #5 comdat align 2 {
  %2 = alloca ptr, align 8
  store ptr %0, ptr %2, align 8
  %3 = load ptr, ptr %2, align 8
  %4 = getelementptr inbounds %"struct.std::_Vector_base.60", ptr %3, i32 0, i32 0
  %5 = getelementptr inbounds %"struct.std::_Vector_base<pkpy::unique_ptr_128<pkpy::Expr>, std::allocator<pkpy::unique_ptr_128<pkpy::Expr>>>::_Vector_impl_data", ptr %4, i32 0, i32 1
  %6 = load ptr, ptr %5, align 8
  %7 = getelementptr inbounds %"class.pkpy::unique_ptr_128", ptr %6, i32 -1
  store ptr %7, ptr %5, align 8
  %8 = getelementptr inbounds %"struct.std::_Vector_base.60", ptr %3, i32 0, i32 0
  %9 = getelementptr inbounds %"struct.std::_Vector_base.60", ptr %3, i32 0, i32 0
  %10 = getelementptr inbounds %"struct.std::_Vector_base<pkpy::unique_ptr_128<pkpy::Expr>, std::allocator<pkpy::unique_ptr_128<pkpy::Expr>>>::_Vector_impl_data", ptr %9, i32 0, i32 1
  %11 = load ptr, ptr %10, align 8
  call void @_ZNSt16allocator_traitsISaIN4pkpy14unique_ptr_128INS0_4ExprEEEEE7destroyIS3_EEvRS4_PT_(ptr noundef nonnull align 1 dereferenceable(1) %8, ptr noundef %11) #3
  ret void
}

; Function Attrs: mustprogress nounwind uwtable
define linkonce_odr noundef nonnull align 8 dereferenceable(232) ptr @_ZN4pkpy5stackINS_15CodeEmitContextESt6vectorIS1_SaIS1_EEE3topEv(ptr noundef nonnull align 8 dereferenceable(24) %0) #5 comdat align 2 {
  %2 = alloca ptr, align 8
  store ptr %0, ptr %2, align 8
  %3 = load ptr, ptr %2, align 8
  %4 = getelementptr inbounds %"class.pkpy::stack.4", ptr %3, i32 0, i32 0
  %5 = call noundef nonnull align 8 dereferenceable(232) ptr @_ZNSt6vectorIN4pkpy15CodeEmitContextESaIS1_EE4backEv(ptr noundef nonnull align 8 dereferenceable(24) %4) #3
  ret ptr %5
}

; Function Attrs: mustprogress nounwind uwtable
define linkonce_odr void @_ZN4pkpy5stackINS_14unique_ptr_128INS_4ExprEEESt6vectorIS3_SaIS3_EEE3popEv(ptr noundef nonnull align 8 dereferenceable(24) %0) #5 comdat align 2 {
  %2 = alloca ptr, align 8
  store ptr %0, ptr %2, align 8
  %3 = load ptr, ptr %2, align 8
  %4 = getelementptr inbounds %"class.pkpy::stack.58", ptr %3, i32 0, i32 0
  call void @_ZNSt6vectorIN4pkpy14unique_ptr_128INS0_4ExprEEESaIS3_EE8pop_backEv(ptr noundef nonnull align 8 dereferenceable(24) %4) #3
  ret void
}

; Function Attrs: mustprogress uwtable
define linkonce_odr noundef ptr @_ZN4pkpy8Compiler3ctxEv(ptr noundef nonnull align 8 dereferenceable(200) %0) #4 comdat align 2 {
  %2 = alloca ptr, align 8
  store ptr %0, ptr %2, align 8
  %3 = load ptr, ptr %2, align 8
  %4 = getelementptr inbounds %"class.pkpy::Compiler", ptr %3, i32 0, i32 1
  %5 = call noundef nonnull align 8 dereferenceable(232) ptr @_ZN4pkpy5stackINS_15CodeEmitContextESt6vectorIS1_SaIS1_EEE3topEv(ptr noundef nonnull align 8 dereferenceable(24) %4)
  ret ptr %5
}

; Function Attrs: mustprogress uwtable
define void @_ZN4pkpy8Compiler4EXPREv(ptr noundef nonnull align 8 dereferenceable(200) %0) #4 align 2 {
  %2 = alloca ptr, align 8
  store ptr %0, ptr %2, align 8
  %3 = load ptr, ptr %2, align 8
  call void @_ZN4pkpy8Compiler16parse_expressionEib(ptr noundef nonnull align 8 dereferenceable(200) %3, i32 noundef 1, i1 noundef zeroext false)
  ret void
}

; Function Attrs: mustprogress uwtable
define void @_ZN4pkpy8Compiler18consume_type_hintsEv(ptr noundef nonnull align 8 dereferenceable(200) %0) #4 align 2 {
  %2 = alloca ptr, align 8
  store ptr %0, ptr %2, align 8
  %3 = load ptr, ptr %2, align 8
  call void @_ZN4pkpy8Compiler4EXPREv(ptr noundef nonnull align 8 dereferenceable(200) %3)
  %4 = call noundef ptr @_ZN4pkpy8Compiler3ctxEv(ptr noundef nonnull align 8 dereferenceable(200) %3)
  %5 = getelementptr inbounds %"struct.pkpy::CodeEmitContext", ptr %4, i32 0, i32 3
  call void @_ZN4pkpy5stackINS_14unique_ptr_128INS_4ExprEEESt6vectorIS3_SaIS3_EEE3popEv(ptr noundef nonnull align 8 dereferenceable(24) %5)
  ret void
}