; Function Attrs: mustprogress uwtable
define void @_ZN4pkpy8Compiler18consume_type_hintsEv(ptr noundef nonnull align 8 dereferenceable(200) %0) local_unnamed_addr #5 align 2 {
  tail call void @_ZN4pkpy8Compiler16parse_expressionEib(ptr noundef nonnull align 8 dereferenceable(200) %0, i32 noundef 1, i1 noundef zeroext false)
  %2 = getelementptr inbounds nuw i8, ptr %0, i64 144
  %3 = load ptr, ptr %2, align 8
  %4 = getelementptr inbounds i8, ptr %3, i64 -184
  %5 = load ptr, ptr %4, align 8
  %6 = getelementptr inbounds i8, ptr %5, i64 -8
  store ptr %6, ptr %4, align 8
  %7 = load ptr, ptr %6, align 8
  %.not.i.i.i.i.i = icmp eq ptr %7, null
  br i1 %.not.i.i.i.i.i, label %_ZN4pkpy5stackINS_14unique_ptr_128INS_4ExprEEESt6vectorIS3_SaIS3_EEE3popEv.exit, label %8

8:                                                ; preds = %1
  %9 = load ptr, ptr %7, align 8
  %10 = load ptr, ptr %9, align 8
  tail call void %10(ptr noundef nonnull align 8 dereferenceable(12) %7) #36
  %11 = load ptr, ptr %6, align 8
  tail call void @_ZN4pkpy15pool128_deallocEPv(ptr noundef %11) #36
  store ptr null, ptr %6, align 8
  br label %_ZN4pkpy5stackINS_14unique_ptr_128INS_4ExprEEESt6vectorIS3_SaIS3_EEE3popEv.exit

_ZN4pkpy5stackINS_14unique_ptr_128INS_4ExprEEESt6vectorIS3_SaIS3_EEE3popEv.exit: ; preds = %1, %8
  ret void
}